; Function Attrs: mustprogress uwtable
define void @_ZN6icu_756Locale15setKeywordValueENS_11StringPieceES1_R10UErrorCode(ptr noundef nonnull align 8 dereferenceable(217) %this, ptr %keywordName.coerce0, i32 %keywordName.coerce1, ptr %keywordValue.coerce0, i32 %keywordValue.coerce1, ptr noundef nonnull align 4 dereferenceable(4) %status) local_unnamed_addr #1 align 2 personality ptr @__gxx_personality_v0 {
entry:
  %keywordName_nul = alloca %"class.icu_75::CharString", align 8
  %keywordValue_nul = alloca %"class.icu_75::CharString", align 8
  call void @_ZN6icu_7515MaybeStackArrayIcLi40EEC1Ev(ptr noundef nonnull align 8 dereferenceable(53) %keywordName_nul)
  %len.i = getelementptr inbounds i8, ptr %keywordName_nul, i64 56
  store i32 0, ptr %len.i, align 8
  %0 = load ptr, ptr %keywordName_nul, align 8
  store i8 0, ptr %0, align 1
  %call3.i1.i = invoke noundef nonnull align 8 dereferenceable(60) ptr @_ZN6icu_7510CharString6appendEPKciR10UErrorCode(ptr noundef nonnull align 8 dereferenceable(60) %keywordName_nul, ptr noundef %keywordName.coerce0, i32 noundef %keywordName.coerce1, ptr noundef nonnull align 4 dereferenceable(4) %status)
          to label %_ZN6icu_7510CharStringC2ENS_11StringPieceER10UErrorCode.exit unwind label %lpad.i

common.resume:                                    ; preds = %lpad3, %lpad.i6, %lpad, %lpad.i
  %common.resume.op = phi { ptr, i32 } [ %1, %lpad.i ], [ %7, %lpad3 ], [ %6, %lpad ], [ %3, %lpad.i6 ]
  call void @_ZN6icu_7515MaybeStackArrayIcLi40EED1Ev(ptr noundef nonnull align 8 dereferenceable(53) %keywordName_nul) #20
  resume { ptr, i32 } %common.resume.op

lpad.i:                                           ; preds = %entry
  %1 = landingpad { ptr, i32 }
          cleanup
  br label %common.resume

_ZN6icu_7510CharStringC2ENS_11StringPieceER10UErrorCode.exit: ; preds = %entry
  invoke void @_ZN6icu_7515MaybeStackArrayIcLi40EEC1Ev(ptr noundef nonnull align 8 dereferenceable(53) %keywordValue_nul)
          to label %.noexc unwind label %lpad

.noexc:                                           ; preds = %_ZN6icu_7510CharStringC2ENS_11StringPieceER10UErrorCode.exit
  %len.i4 = getelementptr inbounds i8, ptr %keywordValue_nul, i64 56
  store i32 0, ptr %len.i4, align 8
  %2 = load ptr, ptr %keywordValue_nul, align 8
  store i8 0, ptr %2, align 1
  %call3.i1.i5 = invoke noundef nonnull align 8 dereferenceable(60) ptr @_ZN6icu_7510CharString6appendEPKciR10UErrorCode(ptr noundef nonnull align 8 dereferenceable(60) %keywordValue_nul, ptr noundef %keywordValue.coerce0, i32 noundef %keywordValue.coerce1, ptr noundef nonnull align 4 dereferenceable(4) %status)
          to label %invoke.cont unwind label %lpad.i6

lpad.i6:                                          ; preds = %.noexc
  %3 = landingpad { ptr, i32 }
          cleanup
  call void @_ZN6icu_7515MaybeStackArrayIcLi40EED1Ev(ptr noundef nonnull align 8 dereferenceable(53) %keywordValue_nul) #20
  br label %common.resume

invoke.cont:                                      ; preds = %.noexc
  %4 = load ptr, ptr %keywordName_nul, align 8
  %5 = load ptr, ptr %keywordValue_nul, align 8
  invoke void @_ZN6icu_756Locale15setKeywordValueEPKcS2_R10UErrorCode(ptr noundef nonnull align 8 dereferenceable(217) %this, ptr noundef %4, ptr noundef %5, ptr noundef nonnull align 4 dereferenceable(4) %status)
          to label %invoke.cont7 unwind label %lpad3

invoke.cont7:                                     ; preds = %invoke.cont
  call void @_ZN6icu_7515MaybeStackArrayIcLi40EED1Ev(ptr noundef nonnull align 8 dereferenceable(53) %keywordValue_nul) #20
  call void @_ZN6icu_7515MaybeStackArrayIcLi40EED1Ev(ptr noundef nonnull align 8 dereferenceable(53) %keywordName_nul) #20
  ret void

lpad:                                             ; preds = %_ZN6icu_7510CharStringC2ENS_11StringPieceER10UErrorCode.exit
  %6 = landingpad { ptr, i32 }
          cleanup
  br label %common.resume

lpad3:                                            ; preds = %invoke.cont
  %7 = landingpad { ptr, i32 }
          cleanup
  call void @_ZN6icu_7515MaybeStackArrayIcLi40EED1Ev(ptr noundef nonnull align 8 dereferenceable(53) %keywordValue_nul) #20
  br label %common.resume
}